target datalayout = "e-m:e-p270:32:32-p271:32:32-p272:64:64-i64:64-i128:128-f80:128-n8:16:32:64-S128"
target triple = "x86_64-pc-linux-gnu"

%"struct.absl::container_internal::HashtablezInfo" = type { %"struct.absl::profiling_internal::Sample", %"struct.std::atomic", %"struct.std::atomic", %"struct.std::atomic", %"struct.std::atomic", %"struct.std::atomic", %"struct.std::atomic", %"struct.std::atomic", %"struct.std::atomic", %"struct.std::atomic", %"struct.std::atomic", %"class.absl::Time", i32, i16, [64 x ptr], i64, i64, i64 }
%"struct.absl::profiling_internal::Sample" = type { %"class.absl::Mutex", ptr, ptr, i64 }
%"class.absl::Mutex" = type { %"struct.std::atomic.2" }
%"struct.std::atomic.2" = type { %"struct.std::__atomic_base.3" }
%"struct.std::__atomic_base.3" = type { i64 }
%"struct.std::atomic" = type { %"struct.std::__atomic_base" }
%"struct.std::__atomic_base" = type { i64 }
%"class.absl::Time" = type { %"class.absl::Duration" }
%"class.absl::Duration" = type { %"class.absl::Duration::HiRep", i32 }
%"class.absl::Duration::HiRep" = type { i32, i32 }

; Function Attrs: mustprogress nounwind uwtable
define linkonce_odr dso_local noundef nonnull align 4 dereferenceable(8) ptr @_ZN4absl8Duration5HiRepaSEl(ptr noundef nonnull align 4 dereferenceable(8) %0, i64 noundef %1) #4 comdat align 2 {
  %3 = alloca ptr, align 8
  %4 = alloca i64, align 8
  %5 = alloca i64, align 8
  store ptr %0, ptr %3, align 8, !tbaa !108
  store i64 %1, ptr %4, align 8, !tbaa !23
  %6 = load ptr, ptr %3, align 8
  call void @llvm.lifetime.start.p0(i64 8, ptr %5) #1
  %7 = load i64, ptr %4, align 8, !tbaa !23
  store i64 %7, ptr %5, align 8, !tbaa !23
  %8 = load i64, ptr %5, align 8, !tbaa !23
  %9 = lshr i64 %8, 32
  %10 = trunc i64 %9 to i32
  %11 = getelementptr inbounds nuw %"class.absl::Duration::HiRep", ptr %6, i32 0, i32 1
  store i32 %10, ptr %11, align 4, !tbaa !111
  %12 = load i64, ptr %5, align 8, !tbaa !23
  %13 = trunc i64 %12 to i32
  %14 = getelementptr inbounds nuw %"class.absl::Duration::HiRep", ptr %6, i32 0, i32 0
  store i32 %13, ptr %14, align 4, !tbaa !110
  call void @llvm.lifetime.end.p0(i64 8, ptr %5) #1
  ret ptr %6
}

; Function Attrs: mustprogress nounwind uwtable
define linkonce_odr dso_local void @_ZNSt13__atomic_baseIlEC2El(ptr noundef nonnull align 8 dereferenceable(8) %0, i64 noundef %1) unnamed_addr #4 comdat align 2 {
  %3 = alloca ptr, align 8
  %4 = alloca i64, align 8
  store ptr %0, ptr %3, align 8, !tbaa !102
  store i64 %1, ptr %4, align 8, !tbaa !23
  %5 = load ptr, ptr %3, align 8
  %6 = getelementptr inbounds nuw %"struct.std::__atomic_base.3", ptr %5, i32 0, i32 0
  %7 = load i64, ptr %4, align 8, !tbaa !23
  store i64 %7, ptr %6, align 8, !tbaa !104
  ret void
}

; Function Attrs: noinline noreturn nounwind uwtable
define linkonce_odr hidden void @__clang_call_terminate(ptr noundef %0) #10 comdat {
  %2 = call ptr @__cxa_begin_catch(ptr %0) #1
  call void @_ZSt9terminatev() #13
  unreachable
}

; Function Attrs: alwaysinline mustprogress nounwind uwtable
define linkonce_odr dso_local void @_ZN4absl5Mutex4DtorEv(ptr noundef nonnull align 8 dereferenceable(8) %0) #5 comdat align 2 {
  %2 = alloca ptr, align 8
  store ptr %0, ptr %2, align 8, !tbaa !87
  ret void
}

; Function Attrs: mustprogress uwtable
define linkonce_odr dso_local void @_ZN4absl8Duration5HiRepC2El(ptr noundef nonnull align 4 dereferenceable(8) %0, i64 noundef %1) unnamed_addr #0 comdat align 2 {
  %3 = alloca ptr, align 8
  %4 = alloca i64, align 8
  store ptr %0, ptr %3, align 8, !tbaa !108
  store i64 %1, ptr %4, align 8, !tbaa !23
  %5 = load ptr, ptr %3, align 8
  %6 = getelementptr inbounds nuw %"class.absl::Duration::HiRep", ptr %5, i32 0, i32 0
  store i32 0, ptr %6, align 4, !tbaa !110
  %7 = getelementptr inbounds nuw %"class.absl::Duration::HiRep", ptr %5, i32 0, i32 1
  store i32 0, ptr %7, align 4, !tbaa !111
  %8 = load i64, ptr %4, align 8, !tbaa !23
  %9 = call noundef nonnull align 4 dereferenceable(8) ptr @_ZN4absl8Duration5HiRepaSEl(ptr noundef nonnull align 4 dereferenceable(8) %5, i64 noundef %8)
  ret void
}

; Function Attrs: mustprogress nounwind uwtable
define linkonce_odr dso_local void @_ZNSt6atomicIlEC2El(ptr noundef nonnull align 8 dereferenceable(8) %0, i64 noundef %1) unnamed_addr #4 comdat align 2 {
  %3 = alloca ptr, align 8
  %4 = alloca i64, align 8
  store ptr %0, ptr %3, align 8, !tbaa !100
  store i64 %1, ptr %4, align 8, !tbaa !23
  %5 = load ptr, ptr %3, align 8
  %6 = load i64, ptr %4, align 8, !tbaa !23
  call void @_ZNSt13__atomic_baseIlEC2El(ptr noundef nonnull align 8 dereferenceable(8) %5, i64 noundef %6) #1
  ret void
}

; Function Attrs: alwaysinline mustprogress nounwind uwtable
define linkonce_odr dso_local void @_ZN4absl5MutexD2Ev(ptr noundef nonnull align 8 dereferenceable(8) %0) unnamed_addr #5 comdat align 2 personality ptr @__gxx_personality_v0 {
  %2 = alloca ptr, align 8
  store ptr %0, ptr %2, align 8, !tbaa !87
  %3 = load ptr, ptr %2, align 8
  invoke void @_ZN4absl5Mutex4DtorEv(ptr noundef nonnull align 8 dereferenceable(8) %3)
          to label %4 unwind label %5

4:                                                ; preds = %1
  ret void

5:                                                ; preds = %1
  %6 = landingpad { ptr, i32 }
          catch ptr null
  %7 = extractvalue { ptr, i32 } %6, 0
  call void @__clang_call_terminate(ptr %7) #13
  unreachable
}

; Function Attrs: mustprogress uwtable
define linkonce_odr dso_local void @_ZN4absl8DurationC2Ev(ptr noundef nonnull align 4 dereferenceable(12) %0) unnamed_addr #0 comdat align 2 {
  %2 = alloca ptr, align 8
  store ptr %0, ptr %2, align 8, !tbaa !105
  %3 = load ptr, ptr %2, align 8
  %4 = getelementptr inbounds nuw %"class.absl::Duration", ptr %3, i32 0, i32 0
  call void @_ZN4absl8Duration5HiRepC2El(ptr noundef nonnull align 4 dereferenceable(8) %4, i64 noundef 0)
  %5 = getelementptr inbounds nuw %"class.absl::Duration", ptr %3, i32 0, i32 1
  store i32 0, ptr %5, align 4, !tbaa !107
  ret void
}

; Function Attrs: inlinehint mustprogress nounwind uwtable
define linkonce_odr dso_local void @_ZN4absl5MutexC2Ev(ptr noundef nonnull align 8 dereferenceable(8) %0) unnamed_addr #3 comdat align 2 {
  %2 = alloca ptr, align 8
  store ptr %0, ptr %2, align 8, !tbaa !87
  %3 = load ptr, ptr %2, align 8
  %4 = getelementptr inbounds nuw %"class.absl::Mutex", ptr %3, i32 0, i32 0
  call void @_ZNSt6atomicIlEC2El(ptr noundef nonnull align 8 dereferenceable(8) %4, i64 noundef 0) #1
  ret void
}

; Function Attrs: inlinehint mustprogress nounwind uwtable
define linkonce_odr dso_local void @_ZN4absl18profiling_internal6SampleINS_18container_internal14HashtablezInfoEED2Ev(ptr noundef nonnull align 8 dereferenceable(32) %0) unnamed_addr #3 comdat align 2 {
  %2 = alloca ptr, align 8
  store ptr %0, ptr %2, align 8, !tbaa !12
  %3 = load ptr, ptr %2, align 8
  %4 = getelementptr inbounds nuw %"struct.absl::profiling_internal::Sample", ptr %3, i32 0, i32 0
  call void @_ZN4absl5MutexD2Ev(ptr noundef nonnull align 8 dereferenceable(8) %4) #1
  ret void
}

; Function Attrs: mustprogress uwtable
define linkonce_odr dso_local void @_ZN4absl4TimeC2Ev(ptr noundef nonnull align 4 dereferenceable(12) %0) unnamed_addr #0 comdat align 2 {
  %2 = alloca ptr, align 8
  store ptr %0, ptr %2, align 8, !tbaa !21
  %3 = load ptr, ptr %2, align 8
  %4 = getelementptr inbounds nuw %"class.absl::Time", ptr %3, i32 0, i32 0
  call void @_ZN4absl8DurationC2Ev(ptr noundef nonnull align 4 dereferenceable(12) %4)
  ret void
}

; Function Attrs: inlinehint mustprogress uwtable
define linkonce_odr dso_local void @_ZN4absl18profiling_internal6SampleINS_18container_internal14HashtablezInfoEEC2Ev(ptr noundef nonnull align 8 dereferenceable(32) %0) unnamed_addr #2 comdat align 2 {
  %2 = alloca ptr, align 8
  store ptr %0, ptr %2, align 8, !tbaa !12
  %3 = load ptr, ptr %2, align 8
  %4 = getelementptr inbounds nuw %"struct.absl::profiling_internal::Sample", ptr %3, i32 0, i32 0
  call void @_ZN4absl5MutexC2Ev(ptr noundef nonnull align 8 dereferenceable(8) %4)
  %5 = getelementptr inbounds nuw %"struct.absl::profiling_internal::Sample", ptr %3, i32 0, i32 1
  store ptr null, ptr %5, align 8, !tbaa !14
  %6 = getelementptr inbounds nuw %"struct.absl::profiling_internal::Sample", ptr %3, i32 0, i32 2
  store ptr null, ptr %6, align 8, !tbaa !20
  ret void
}

; Function Attrs: mustprogress uwtable
define dso_local void @_ZN4absl18container_internal14HashtablezInfoC2Ev(ptr noundef nonnull align 8 dereferenceable(672) %0) unnamed_addr #0 align 2 personality ptr @__gxx_personality_v0 {
  %2 = alloca ptr, align 8
  %3 = alloca ptr, align 8
  %4 = alloca i32, align 4
  store ptr %0, ptr %2, align 8, !tbaa !10
  %5 = load ptr, ptr %2, align 8
  call void @_ZN4absl18profiling_internal6SampleINS_18container_internal14HashtablezInfoEEC2Ev(ptr noundef nonnull align 8 dereferenceable(32) %5)
  %6 = getelementptr inbounds nuw %"struct.absl::container_internal::HashtablezInfo", ptr %5, i32 0, i32 11
  invoke void @_ZN4absl4TimeC2Ev(ptr noundef nonnull align 4 dereferenceable(12) %6)
          to label %7 unwind label %8

7:                                                ; preds = %1
  ret void

8:                                                ; preds = %1
  %9 = landingpad { ptr, i32 }
          cleanup
  %10 = extractvalue { ptr, i32 } %9, 0
  store ptr %10, ptr %3, align 8
  %11 = extractvalue { ptr, i32 } %9, 1
  store i32 %11, ptr %4, align 4
  call void @_ZN4absl18profiling_internal6SampleINS_18container_internal14HashtablezInfoEED2Ev(ptr noundef nonnull align 8 dereferenceable(32) %5) #1
  br label %12

12:                                               ; preds = %8
  %13 = load ptr, ptr %3, align 8
  %14 = load i32, ptr %4, align 4
  %15 = insertvalue { ptr, i32 } poison, ptr %13, 0
  %16 = insertvalue { ptr, i32 } %15, i32 %14, 1
  resume { ptr, i32 } %16
}