; Function Attrs: mustprogress nofree norecurse nosync nounwind willreturn memory(argmem: write) uwtable
define dso_local void @_ZN4absl18container_internal14HashtablezInfoC2Ev(ptr noundef nonnull writeonly align 8 captures(none) dereferenceable(672) initializes((0, 24), (112, 124)) %0) unnamed_addr #2 align 2 personality ptr @__gxx_personality_v0 {
  tail call void @llvm.memset.p0.i64(ptr noundef nonnull align 8 dereferenceable(32) %0, i8 0, i64 24, i1 false)
  %2 = getelementptr inbounds nuw i8, ptr %0, i64 112
  %3 = getelementptr inbounds nuw i8, ptr %0, i64 116
  store i32 0, ptr %3, align 4, !tbaa !10
  store i32 0, ptr %2, align 8, !tbaa !13
  %4 = getelementptr inbounds nuw i8, ptr %0, i64 120
  store i32 0, ptr %4, align 8, !tbaa !14
  ret void
}